; Function Attrs: nounwind uwtable
define dso_local void @slurmdb_destroy_hierarchical_rec(ptr noundef %0) #0 {
  %2 = alloca ptr, align 8
  call void @llvm.lifetime.start.p0(i64 8, ptr nonnull %2) #19
  store ptr %0, ptr %2, align 8
  %.not = icmp eq ptr %0, null
  br i1 %.not, label %9, label %3

3:                                                ; preds = %1
  %4 = getelementptr inbounds nuw i8, ptr %0, i64 8
  tail call void @slurm_xfree(ptr noundef nonnull %4) #19
  %5 = getelementptr inbounds nuw i8, ptr %0, i64 24
  %6 = load ptr, ptr %5, align 8
  %.not2 = icmp eq ptr %6, null
  br i1 %.not2, label %8, label %7

7:                                                ; preds = %3
  tail call void @list_destroy(ptr noundef nonnull %6) #19
  br label %8

8:                                                ; preds = %7, %3
  store ptr null, ptr %5, align 8
  call void @slurm_xfree(ptr noundef nonnull %2) #19
  br label %9

9:                                                ; preds = %8, %1
  call void @llvm.lifetime.end.p0(i64 8, ptr nonnull %2) #19
  ret void
}